target datalayout = "e-m:e-p270:32:32-p271:32:32-p272:64:64-i64:64-i128:128-f80:128-n8:16:32:64-S128"
target triple = "x86_64-pc-linux-gnu"

%struct.tsd_s = type { i8, i8, i8, i64, i64, i64, i64, i64, i64, i64, i64, i64, i64, i64, i64, ptr, i64, i64, i64, ptr, ptr, %struct.ticker_geom_s, i8, %struct.tsd_binshards_s, %struct.tsd_link_t, i8, %struct.peak_s, %struct.activity_callback_thunk_s, %struct.tcache_slow_s, %struct.rtree_ctx_s, %struct.atomic_u8_t, i64, i64, i64, i64, %struct.tcache_s, %struct.witness_tsd_s }
%struct.ticker_geom_s = type { i32, i32 }
%struct.tsd_binshards_s = type { [36 x i8] }
%struct.tsd_link_t = type { ptr, ptr }
%struct.peak_s = type { i64, i64 }
%struct.activity_callback_thunk_s = type { ptr, ptr }
%struct.tcache_slow_s = type { %struct.anon.8, %struct.cache_bin_array_descriptor_s, ptr, i32, i32, [36 x i8], [36 x i8], [36 x i8], ptr, ptr }
%struct.anon.8 = type { ptr, ptr }
%struct.cache_bin_array_descriptor_s = type { %struct.anon.9, ptr }
%struct.anon.9 = type { ptr, ptr }
%struct.rtree_ctx_s = type { [16 x %struct.rtree_ctx_cache_elm_s], [8 x %struct.rtree_ctx_cache_elm_s] }
%struct.rtree_ctx_cache_elm_s = type { i64, ptr }
%struct.atomic_u8_t = type { i8 }
%struct.tcache_s = type { ptr, [73 x %struct.cache_bin_s] }
%struct.cache_bin_s = type { ptr, %struct.cache_bin_stats_s, i16, i16, i16, %struct.cache_bin_info_s }
%struct.cache_bin_stats_s = type { i64 }
%struct.cache_bin_info_s = type { i16 }
%struct.witness_tsd_s = type { %struct.witness_list_t, i8 }
%struct.witness_list_t = type { ptr }

@duckdb_je_malloc_init_state = global i32 3, align 4
@duckdb_je_tsd_tls = external thread_local global %struct.tsd_s, align 8

; Function Attrs: alwaysinline nounwind uwtable
define internal void @tsd_assert_fast(ptr noundef %0) #4 {
  %2 = alloca ptr, align 8
  store ptr %0, ptr %2, align 8, !tbaa !23
  br label %3

3:                                                ; preds = %1
  br label %4

4:                                                ; preds = %3
  ret void
}

; Function Attrs: alwaysinline nounwind uwtable
define internal zeroext i8 @tsd_state_get(ptr noundef %0) #4 {
  %2 = alloca ptr, align 8
  store ptr %0, ptr %2, align 8, !tbaa !23
  %3 = load ptr, ptr %2, align 8, !tbaa !23
  %4 = getelementptr inbounds nuw %struct.tsd_s, ptr %3, i32 0, i32 30
  %5 = load i8, ptr %4, align 8, !tbaa !25
  ret i8 %5
}

; Function Attrs: alwaysinline nounwind uwtable
define internal zeroext i1 @tsd_get_allocates() #4 {
  ret i1 false
}

; Function Attrs: alwaysinline nounwind uwtable
define internal ptr @tsd_get(i1 noundef zeroext %0) #4 {
  %2 = alloca i8, align 1
  %3 = zext i1 %0 to i8
  store i8 %3, ptr %2, align 1, !tbaa !9
  %4 = call align 8 ptr @llvm.threadlocal.address.p0(ptr align 8 @duckdb_je_tsd_tls)
  ret ptr %4
}

; Function Attrs: alwaysinline nounwind uwtable
define internal ptr @tsd_fetch_impl(i1 noundef zeroext %0, i1 noundef zeroext %1) #4 {
  %3 = alloca ptr, align 8
  %4 = alloca i8, align 1
  %5 = alloca i8, align 1
  %6 = alloca ptr, align 8
  %7 = alloca i32, align 4
  %8 = zext i1 %0 to i8
  store i8 %8, ptr %4, align 1, !tbaa !9
  %9 = zext i1 %1 to i8
  store i8 %9, ptr %5, align 1, !tbaa !9
  call void @llvm.lifetime.start.p0(i64 8, ptr %6) #19
  %10 = load i8, ptr %4, align 1, !tbaa !9, !range !11, !noundef !12
  %11 = trunc i8 %10 to i1
  %12 = call ptr @tsd_get(i1 noundef zeroext %11)
  store ptr %12, ptr %6, align 8, !tbaa !23
  %13 = load i8, ptr %4, align 1, !tbaa !9, !range !11, !noundef !12
  %14 = trunc i8 %13 to i1
  br i1 %14, label %21, label %15

15:                                               ; preds = %2
  %16 = call zeroext i1 @tsd_get_allocates()
  br i1 %16, label %17, label %21

17:                                               ; preds = %15
  %18 = load ptr, ptr %6, align 8, !tbaa !23
  %19 = icmp eq ptr %18, null
  br i1 %19, label %20, label %21

20:                                               ; preds = %17
  store ptr null, ptr %3, align 8
  store i32 1, ptr %7, align 4
  br label %46

21:                                               ; preds = %17, %15, %2
  br label %22

22:                                               ; preds = %21
  br label %23

23:                                               ; preds = %22
  br label %24

24:                                               ; preds = %23
  %25 = load ptr, ptr %6, align 8, !tbaa !23
  %26 = call zeroext i8 @tsd_state_get(ptr noundef %25)
  %27 = zext i8 %26 to i32
  %28 = icmp ne i32 %27, 0
  %29 = xor i1 %28, true
  %30 = xor i1 %29, true
  %31 = zext i1 %30 to i32
  %32 = sext i32 %31 to i64
  %33 = call i64 @llvm.expect.i64(i64 %32, i64 0)
  %34 = icmp ne i64 %33, 0
  br i1 %34, label %35, label %40

35:                                               ; preds = %24
  %36 = load ptr, ptr %6, align 8, !tbaa !23
  %37 = load i8, ptr %5, align 1, !tbaa !9, !range !11, !noundef !12
  %38 = trunc i8 %37 to i1
  %39 = call ptr @duckdb_je_tsd_fetch_slow(ptr noundef %36, i1 noundef zeroext %38)
  store ptr %39, ptr %3, align 8
  store i32 1, ptr %7, align 4
  br label %46

40:                                               ; preds = %24
  br label %41

41:                                               ; preds = %40
  br label %42

42:                                               ; preds = %41
  br label %43

43:                                               ; preds = %42
  %44 = load ptr, ptr %6, align 8, !tbaa !23
  call void @tsd_assert_fast(ptr noundef %44)
  %45 = load ptr, ptr %6, align 8, !tbaa !23
  store ptr %45, ptr %3, align 8
  store i32 1, ptr %7, align 4
  br label %46

46:                                               ; preds = %43, %35, %20
  call void @llvm.lifetime.end.p0(i64 8, ptr %6) #19
  %47 = load ptr, ptr %3, align 8
  ret ptr %47
}

; Function Attrs: alwaysinline nounwind uwtable
define internal zeroext i1 @malloc_initialized() #4 {
  %1 = load i32, ptr @duckdb_je_malloc_init_state, align 4, !tbaa !13
  %2 = icmp eq i32 %1, 0
  ret i1 %2
}

; Function Attrs: alwaysinline nounwind uwtable
define internal void @check_entry_exit_locking(ptr noundef %0) #4 {
  %2 = alloca ptr, align 8
  store ptr %0, ptr %2, align 8, !tbaa !17
  ret void
}

; Function Attrs: alwaysinline nounwind uwtable
define internal ptr @tsd_tsdn(ptr noundef %0) #4 {
  %2 = alloca ptr, align 8
  store ptr %0, ptr %2, align 8, !tbaa !23
  %3 = load ptr, ptr %2, align 8, !tbaa !23
  ret ptr %3
}

; Function Attrs: alwaysinline nounwind uwtable
define internal ptr @tsd_fetch() #4 {
  %1 = call ptr @tsd_fetch_impl(i1 noundef zeroext true, i1 noundef zeroext false)
  ret ptr %1
}

; Function Attrs: alwaysinline nounwind uwtable
define internal zeroext i1 @malloc_init() #4 {
  %1 = alloca i1, align 1
  %2 = call zeroext i1 @malloc_initialized()
  %3 = xor i1 %2, true
  %4 = xor i1 %3, true
  %5 = xor i1 %4, true
  %6 = zext i1 %5 to i32
  %7 = sext i32 %6 to i64
  %8 = call i64 @llvm.expect.i64(i64 %7, i64 0)
  %9 = icmp ne i64 %8, 0
  br i1 %9, label %10, label %13

10:                                               ; preds = %0
  %11 = call zeroext i1 @malloc_init_hard()
  br i1 %11, label %12, label %13

12:                                               ; preds = %10
  store i1 true, ptr %1, align 1
  br label %14

13:                                               ; preds = %10, %0
  store i1 false, ptr %1, align 1
  br label %14

14:                                               ; preds = %13, %12
  %15 = load i1, ptr %1, align 1
  ret i1 %15
}

; Function Attrs: nounwind uwtable
define i32 @duckdb_je_mallctlbymib(ptr noundef %0, i64 noundef %1, ptr noundef %2, ptr noundef %3, ptr noundef %4, i64 noundef %5) #0 {
  %7 = alloca i32, align 4
  %8 = alloca ptr, align 8
  %9 = alloca i64, align 8
  %10 = alloca ptr, align 8
  %11 = alloca ptr, align 8
  %12 = alloca ptr, align 8
  %13 = alloca i64, align 8
  %14 = alloca i32, align 4
  %15 = alloca ptr, align 8
  %16 = alloca i32, align 4
  store ptr %0, ptr %8, align 8, !tbaa !127
  store i64 %1, ptr %9, align 8, !tbaa !7
  store ptr %2, ptr %10, align 8, !tbaa !3
  store ptr %3, ptr %11, align 8, !tbaa !127
  store ptr %4, ptr %12, align 8, !tbaa !3
  store i64 %5, ptr %13, align 8, !tbaa !7
  call void @llvm.lifetime.start.p0(i64 4, ptr %14) #19
  call void @llvm.lifetime.start.p0(i64 8, ptr %15) #19
  br label %17

17:                                               ; preds = %6
  br label %18

18:                                               ; preds = %17
  br label %19

19:                                               ; preds = %18
  %20 = call zeroext i1 @malloc_init()
  %21 = xor i1 %20, true
  %22 = xor i1 %21, true
  %23 = zext i1 %22 to i32
  %24 = sext i32 %23 to i64
  %25 = call i64 @llvm.expect.i64(i64 %24, i64 0)
  %26 = icmp ne i64 %25, 0
  br i1 %26, label %27, label %31

27:                                               ; preds = %19
  br label %28

28:                                               ; preds = %27
  br label %29

29:                                               ; preds = %28
  br label %30

30:                                               ; preds = %29
  store i32 11, ptr %7, align 4
  store i32 1, ptr %16, align 4
  br label %49

31:                                               ; preds = %19
  %32 = call ptr @tsd_fetch()
  store ptr %32, ptr %15, align 8, !tbaa !23
  %33 = load ptr, ptr %15, align 8, !tbaa !23
  %34 = call ptr @tsd_tsdn(ptr noundef %33)
  call void @check_entry_exit_locking(ptr noundef %34)
  %35 = load ptr, ptr %15, align 8, !tbaa !23
  %36 = load ptr, ptr %8, align 8, !tbaa !127
  %37 = load i64, ptr %9, align 8, !tbaa !7
  %38 = load ptr, ptr %10, align 8, !tbaa !3
  %39 = load ptr, ptr %11, align 8, !tbaa !127
  %40 = load ptr, ptr %12, align 8, !tbaa !3
  %41 = load i64, ptr %13, align 8, !tbaa !7
  %42 = call i32 @duckdb_je_ctl_bymib(ptr noundef %35, ptr noundef %36, i64 noundef %37, ptr noundef %38, ptr noundef %39, ptr noundef %40, i64 noundef %41)
  store i32 %42, ptr %14, align 4, !tbaa !13
  %43 = load ptr, ptr %15, align 8, !tbaa !23
  %44 = call ptr @tsd_tsdn(ptr noundef %43)
  call void @check_entry_exit_locking(ptr noundef %44)
  br label %45

45:                                               ; preds = %31
  br label %46

46:                                               ; preds = %45
  br label %47

47:                                               ; preds = %46
  %48 = load i32, ptr %14, align 4, !tbaa !13
  store i32 %48, ptr %7, align 4
  store i32 1, ptr %16, align 4
  br label %49

49:                                               ; preds = %47, %30
  call void @llvm.lifetime.end.p0(i64 8, ptr %15) #19
  call void @llvm.lifetime.end.p0(i64 4, ptr %14) #19
  %50 = load i32, ptr %7, align 4
  ret i32 %50
}